; Function Attrs: mustprogress nounwind uwtable
define dso_local void @_ZN4llvm7LLLexer12HexToIntPairEPKcS2_Pm(ptr nocapture noundef nonnull readonly align 8 dereferenceable(161) %0, ptr noundef %1, ptr noundef %2, ptr nocapture noundef writeonly %3) local_unnamed_addr #0 align 2 {
  %5 = alloca %"class.llvm::Twine", align 8
  store i64 0, ptr %3, align 8
  %6 = ptrtoint ptr %2 to i64
  %7 = ptrtoint ptr %1 to i64
  %8 = sub i64 %6, %7
  %9 = icmp sgt i64 %8, 15
  br i1 %9, label %.preheader, label %.loopexit

.preheader:                                       ; preds = %4, %.preheader
  %.02023 = phi i32 [ %19, %.preheader ], [ 0, %4 ]
  %.122 = phi ptr [ %20, %.preheader ], [ %1, %4 ]
  %10 = phi i64 [ %18, %.preheader ], [ 0, %4 ]
  %11 = shl i64 %10, 4
  store i64 %11, ptr %3, align 8
  %12 = load i8, ptr %.122, align 1
  %13 = zext i8 %12 to i64
  %14 = getelementptr inbounds [256 x i16], ptr @_ZZN4llvm13hexDigitValueEcE3LUT, i64 0, i64 %13
  %15 = load i16, ptr %14, align 2
  %16 = sext i16 %15 to i64
  %17 = and i64 %16, 4294967295
  %18 = add i64 %17, %11
  store i64 %18, ptr %3, align 8
  %19 = add nuw nsw i32 %.02023, 1
  %20 = getelementptr inbounds i8, ptr %.122, i64 1
  %exitcond.not = icmp eq i32 %19, 16
  br i1 %exitcond.not, label %.loopexit, label %.preheader, !llvm.loop !8

.loopexit:                                        ; preds = %.preheader, %4
  %.021 = phi ptr [ %1, %4 ], [ %20, %.preheader ]
  %21 = getelementptr inbounds i8, ptr %3, i64 8
  store i64 0, ptr %21, align 8
  %.not = icmp eq ptr %.021, %2
  br i1 %.not, label %._crit_edge.thread, label %.lr.ph

.lr.ph:                                           ; preds = %.loopexit, %.lr.ph
  %22 = phi i64 [ %30, %.lr.ph ], [ 0, %.loopexit ]
  %.025 = phi i32 [ %31, %.lr.ph ], [ 0, %.loopexit ]
  %.224 = phi ptr [ %32, %.lr.ph ], [ %.021, %.loopexit ]
  %23 = shl i64 %22, 4
  store i64 %23, ptr %21, align 8
  %24 = load i8, ptr %.224, align 1
  %25 = zext i8 %24 to i64
  %26 = getelementptr inbounds [256 x i16], ptr @_ZZN4llvm13hexDigitValueEcE3LUT, i64 0, i64 %25
  %27 = load i16, ptr %26, align 2
  %28 = sext i16 %27 to i64
  %29 = and i64 %28, 4294967295
  %30 = add i64 %29, %23
  store i64 %30, ptr %21, align 8
  %31 = add nuw nsw i32 %.025, 1
  %32 = getelementptr inbounds i8, ptr %.224, i64 1
  %33 = icmp ult i32 %.025, 15
  %34 = icmp ne ptr %32, %2
  %35 = select i1 %33, i1 %34, i1 false
  br i1 %35, label %.lr.ph, label %._crit_edge, !llvm.loop !9

._crit_edge:                                      ; preds = %.lr.ph
  br i1 %34, label %36, label %._crit_edge.thread

36:                                               ; preds = %._crit_edge
  %37 = getelementptr inbounds nuw i8, ptr %5, i64 32
  %38 = getelementptr inbounds nuw i8, ptr %5, i64 33
  store i8 1, ptr %38, align 1
  store ptr @.str.1, ptr %5, align 8
  store i8 3, ptr %37, align 8
  %39 = getelementptr inbounds nuw i8, ptr %0, i64 48
  %40 = load ptr, ptr %39, align 8
  %41 = call noundef zeroext i1 @_ZNK4llvm7LLLexer5ErrorENS_5SMLocERKNS_5TwineE(ptr noundef nonnull align 8 dereferenceable(161) %0, ptr %40, ptr noundef nonnull align 8 dereferenceable(34) %5)
  br label %._crit_edge.thread

._crit_edge.thread:                               ; preds = %.loopexit, %36, %._crit_edge
  ret void
}